; Function Attrs: mustprogress uwtable
define internal fastcc noundef i32 @_ZL31peer_property_from_x509_subjectP7x509_stP17tsi_peer_propertyb(ptr noundef nonnull %0, ptr noundef %1, i1 noundef zeroext %2) unnamed_addr #3 personality ptr @__gxx_personality_v0 {
  %4 = alloca %"class.absl::lts_20240722::log_internal::LogMessage", align 8
  %5 = alloca ptr, align 8
  %6 = alloca %"class.absl::lts_20240722::log_internal::LogMessage", align 8
  %7 = tail call ptr @X509_get_subject_name(ptr noundef nonnull %0)
  %8 = icmp eq ptr %7, null
  br i1 %8, label %9, label %15

9:                                                ; preds = %3
  %10 = load atomic i8, ptr getelementptr inbounds nuw (i8, ptr @_ZN9grpc_core9tsi_traceE, i64 16) monotonic, align 8
  %11 = trunc i8 %10 to i1
  br i1 %11, label %12, label %.critedge28, !prof !28

12:                                               ; preds = %9
  call void @llvm.lifetime.start.p0(i64 16, ptr nonnull %4) #32
  call void @_ZN4absl12lts_2024072212log_internal10LogMessageC1EPKciNS2_7InfoTagE(ptr noundef nonnull align 8 dereferenceable(16) %4, ptr noundef nonnull @.str.1, i32 noundef 345) #33
  invoke void @_ZN4absl12lts_2024072212log_internal10LogMessage19CopyToEncodedBufferILNS2_10StringTypeE0EEEvSt17basic_string_viewIcSt11char_traitsIcEE(ptr noundef nonnull align 8 dereferenceable(16) %4, i64 44, ptr nonnull @.str.25)
          to label %.critedge unwind label %13

.critedge:                                        ; preds = %12
  call void @_ZN4absl12lts_2024072212log_internal10LogMessageD1Ev(ptr noundef nonnull align 8 dereferenceable(16) %4) #34
  call void @llvm.lifetime.end.p0(i64 16, ptr nonnull %4) #32
  br label %.critedge28

13:                                               ; preds = %12
  %14 = landingpad { ptr, i32 }
          cleanup
  call void @_ZN4absl12lts_2024072212log_internal10LogMessageD1Ev(ptr noundef nonnull align 8 dereferenceable(16) %4) #34
  call void @llvm.lifetime.end.p0(i64 16, ptr nonnull %4) #32
  br label %29

15:                                               ; preds = %3
  %16 = tail call ptr @BIO_s_mem()
  %17 = tail call ptr @BIO_new(ptr noundef %16)
  %18 = tail call i32 @X509_NAME_print_ex(ptr noundef %17, ptr noundef nonnull %7, i32 noundef 0, i64 noundef 17892119)
  call void @llvm.lifetime.start.p0(i64 8, ptr nonnull %5) #32
  %19 = call i64 @BIO_get_mem_data(ptr noundef %17, ptr noundef nonnull %5)
  %20 = icmp slt i64 %19, 0
  br i1 %20, label %21, label %24

21:                                               ; preds = %15
  call void @llvm.lifetime.start.p0(i64 16, ptr nonnull %6) #32
  call void @_ZN4absl12lts_2024072212log_internal10LogMessageC1EPKciNS2_8ErrorTagE(ptr noundef nonnull align 8 dereferenceable(16) %6, ptr noundef nonnull @.str.1, i32 noundef 353) #33
  invoke void @_ZN4absl12lts_2024072212log_internal10LogMessage19CopyToEncodedBufferILNS2_10StringTypeE0EEEvSt17basic_string_viewIcSt11char_traitsIcEE(ptr noundef nonnull align 8 dereferenceable(16) %6, i64 45, ptr nonnull @.str.26)
          to label %_ZN4absl12lts_2024072212log_internal10LogMessagelsILi46EEERS2_RAT__Kc.exit unwind label %22

_ZN4absl12lts_2024072212log_internal10LogMessagelsILi46EEERS2_RAT__Kc.exit: ; preds = %21
  call void @_ZN4absl12lts_2024072212log_internal10LogMessageD1Ev(ptr noundef nonnull align 8 dereferenceable(16) %6) #34
  call void @llvm.lifetime.end.p0(i64 16, ptr nonnull %6) #32
  br label %27

22:                                               ; preds = %21
  %23 = landingpad { ptr, i32 }
          cleanup
  call void @_ZN4absl12lts_2024072212log_internal10LogMessageD1Ev(ptr noundef nonnull align 8 dereferenceable(16) %6) #34
  call void @llvm.lifetime.end.p0(i64 16, ptr nonnull %6) #32
  call void @llvm.lifetime.end.p0(i64 8, ptr nonnull %5) #32
  br label %29

24:                                               ; preds = %15
  %25 = load ptr, ptr %5, align 8, !tbaa !23
  %.str.28..str.27 = select i1 %2, ptr @.str.28, ptr @.str.27
  %26 = call noundef i32 @_Z34tsi_construct_string_peer_propertyPKcS0_mP17tsi_peer_property(ptr noundef nonnull %.str.28..str.27, ptr noundef %25, i64 noundef %19, ptr noundef %1)
  br label %27

27:                                               ; preds = %24, %_ZN4absl12lts_2024072212log_internal10LogMessagelsILi46EEERS2_RAT__Kc.exit
  %.1 = phi i32 [ 7, %_ZN4absl12lts_2024072212log_internal10LogMessagelsILi46EEERS2_RAT__Kc.exit ], [ %26, %24 ]
  %28 = call i32 @BIO_free(ptr noundef %17)
  call void @llvm.lifetime.end.p0(i64 8, ptr nonnull %5) #32
  br label %.critedge28

.critedge28:                                      ; preds = %.critedge, %9, %27
  %.020 = phi i32 [ %.1, %27 ], [ 9, %9 ], [ 9, %.critedge ]
  ret i32 %.020

29:                                               ; preds = %22, %13
  %.pn = phi { ptr, i32 } [ %14, %13 ], [ %23, %22 ]
  resume { ptr, i32 } %.pn
}